
;CodeVisionAVR C Compiler V3.12 Advanced
;(C) Copyright 1998-2014 Pavel Haiduc, HP InfoTech s.r.l.
;http://www.hpinfotech.com

;Build configuration    : Debug
;Chip type              : ATmega32
;Program type           : Application
;Clock frequency        : 1/000000 MHz
;Memory model           : Small
;Optimize for           : Size
;(s)printf features     : int, width
;(s)scanf features      : int, width
;External RAM size      : 0
;Data Stack size        : 512 byte(s)
;Heap size              : 0 byte(s)
;Promote 'char' to 'int': Yes
;'char' is unsigned     : Yes
;8 bit enums            : Yes
;Global 'const' stored in FLASH: No
;Enhanced function parameter passing: Yes
;Enhanced core instructions: On
;Automatic register allocation for global variables: On
;Smart register allocation: On

	#define _MODEL_SMALL_

	#pragma AVRPART ADMIN PART_NAME ATmega32
	#pragma AVRPART MEMORY PROG_FLASH 32768
	#pragma AVRPART MEMORY EEPROM 1024
	#pragma AVRPART MEMORY INT_SRAM SIZE 2048
	#pragma AVRPART MEMORY INT_SRAM START_ADDR 0x60

	#define CALL_SUPPORTED 1

	.LISTMAC
	.EQU UDRE=0x5
	.EQU RXC=0x7
	.EQU USR=0xB
	.EQU UDR=0xC
	.EQU SPSR=0xE
	.EQU SPDR=0xF
	.EQU EERE=0x0
	.EQU EEWE=0x1
	.EQU EEMWE=0x2
	.EQU EECR=0x1C
	.EQU EEDR=0x1D
	.EQU EEARL=0x1E
	.EQU EEARH=0x1F
	.EQU WDTCR=0x21
	.EQU MCUCR=0x35
	.EQU GICR=0x3B
	.EQU SPL=0x3D
	.EQU SPH=0x3E
	.EQU SREG=0x3F

	.DEF R0X0=R0
	.DEF R0X1=R1
	.DEF R0X2=R2
	.DEF R0X3=R3
	.DEF R0X4=R4
	.DEF R0X5=R5
	.DEF R0X6=R6
	.DEF R0X7=R7
	.DEF R0X8=R8
	.DEF R0X9=R9
	.DEF R0XA=R10
	.DEF R0XB=R11
	.DEF R0XC=R12
	.DEF R0XD=R13
	.DEF R0XE=R14
	.DEF R0XF=R15
	.DEF R0X10=R16
	.DEF R0X11=R17
	.DEF R0X12=R18
	.DEF R0X13=R19
	.DEF R0X14=R20
	.DEF R0X15=R21
	.DEF R0X16=R22
	.DEF R0X17=R23
	.DEF R0X18=R24
	.DEF R0X19=R25
	.DEF R0X1A=R26
	.DEF R0X1B=R27
	.DEF R0X1C=R28
	.DEF R0X1D=R29
	.DEF R0X1E=R30
	.DEF R0X1F=R31

	.EQU __SRAM_START=0x0060
	.EQU __SRAM_END=0x085F
	.EQU __DSTACK_SIZE=0x0200
	.EQU __HEAP_SIZE=0x0000
	.EQU __CLEAR_SRAM_SIZE=__SRAM_END-__SRAM_START+1

	.MACRO __CPD1N
	CPI  R30,LOW(@0)
	LDI  R26,HIGH(@0)
	CPC  R31,R26
	LDI  R26,BYTE3(@0)
	CPC  R22,R26
	LDI  R26,BYTE4(@0)
	CPC  R23,R26
	.ENDM

	.MACRO __CPD2N
	CPI  R26,LOW(@0)
	LDI  R30,HIGH(@0)
	CPC  R27,R30
	LDI  R30,BYTE3(@0)
	CPC  R24,R30
	LDI  R30,BYTE4(@0)
	CPC  R25,R30
	.ENDM

	.MACRO __CPWRR
	CP   R@0,R@2
	CPC  R@1,R@3
	.ENDM

	.MACRO __CPWRN
	CPI  R@0,LOW(@2)
	LDI  R30,HIGH(@2)
	CPC  R@1,R30
	.ENDM

	.MACRO __ADDB1MN
	SUBI R30,LOW(-@0-(@1))
	.ENDM

	.MACRO __ADDB2MN
	SUBI R26,LOW(-@0-(@1))
	.ENDM

	.MACRO __ADDW1MN
	SUBI R30,LOW(-@0-(@1))
	SBCI R31,HIGH(-@0-(@1))
	.ENDM

	.MACRO __ADDW2MN
	SUBI R26,LOW(-@0-(@1))
	SBCI R27,HIGH(-@0-(@1))
	.ENDM

	.MACRO __ADDW1FN
	SUBI R30,LOW(-2*@0-(@1))
	SBCI R31,HIGH(-2*@0-(@1))
	.ENDM

	.MACRO __ADDD1FN
	SUBI R30,LOW(-2*@0-(@1))
	SBCI R31,HIGH(-2*@0-(@1))
	SBCI R22,BYTE3(-2*@0-(@1))
	.ENDM

	.MACRO __ADDD1N
	SUBI R30,LOW(-@0)
	SBCI R31,HIGH(-@0)
	SBCI R22,BYTE3(-@0)
	SBCI R23,BYTE4(-@0)
	.ENDM

	.MACRO __ADDD2N
	SUBI R26,LOW(-@0)
	SBCI R27,HIGH(-@0)
	SBCI R24,BYTE3(-@0)
	SBCI R25,BYTE4(-@0)
	.ENDM

	.MACRO __SUBD1N
	SUBI R30,LOW(@0)
	SBCI R31,HIGH(@0)
	SBCI R22,BYTE3(@0)
	SBCI R23,BYTE4(@0)
	.ENDM

	.MACRO __SUBD2N
	SUBI R26,LOW(@0)
	SBCI R27,HIGH(@0)
	SBCI R24,BYTE3(@0)
	SBCI R25,BYTE4(@0)
	.ENDM

	.MACRO __ANDBMNN
	LDS  R30,@0+(@1)
	ANDI R30,LOW(@2)
	STS  @0+(@1),R30
	.ENDM

	.MACRO __ANDWMNN
	LDS  R30,@0+(@1)
	ANDI R30,LOW(@2)
	STS  @0+(@1),R30
	LDS  R30,@0+(@1)+1
	ANDI R30,HIGH(@2)
	STS  @0+(@1)+1,R30
	.ENDM

	.MACRO __ANDD1N
	ANDI R30,LOW(@0)
	ANDI R31,HIGH(@0)
	ANDI R22,BYTE3(@0)
	ANDI R23,BYTE4(@0)
	.ENDM

	.MACRO __ANDD2N
	ANDI R26,LOW(@0)
	ANDI R27,HIGH(@0)
	ANDI R24,BYTE3(@0)
	ANDI R25,BYTE4(@0)
	.ENDM

	.MACRO __ORBMNN
	LDS  R30,@0+(@1)
	ORI  R30,LOW(@2)
	STS  @0+(@1),R30
	.ENDM

	.MACRO __ORWMNN
	LDS  R30,@0+(@1)
	ORI  R30,LOW(@2)
	STS  @0+(@1),R30
	LDS  R30,@0+(@1)+1
	ORI  R30,HIGH(@2)
	STS  @0+(@1)+1,R30
	.ENDM

	.MACRO __ORD1N
	ORI  R30,LOW(@0)
	ORI  R31,HIGH(@0)
	ORI  R22,BYTE3(@0)
	ORI  R23,BYTE4(@0)
	.ENDM

	.MACRO __ORD2N
	ORI  R26,LOW(@0)
	ORI  R27,HIGH(@0)
	ORI  R24,BYTE3(@0)
	ORI  R25,BYTE4(@0)
	.ENDM

	.MACRO __DELAY_USB
	LDI  R24,LOW(@0)
__DELAY_USB_LOOP:
	DEC  R24
	BRNE __DELAY_USB_LOOP
	.ENDM

	.MACRO __DELAY_USW
	LDI  R24,LOW(@0)
	LDI  R25,HIGH(@0)
__DELAY_USW_LOOP:
	SBIW R24,1
	BRNE __DELAY_USW_LOOP
	.ENDM

	.MACRO __GETD1S
	LDD  R30,Y+@0
	LDD  R31,Y+@0+1
	LDD  R22,Y+@0+2
	LDD  R23,Y+@0+3
	.ENDM

	.MACRO __GETD2S
	LDD  R26,Y+@0
	LDD  R27,Y+@0+1
	LDD  R24,Y+@0+2
	LDD  R25,Y+@0+3
	.ENDM

	.MACRO __PUTD1S
	STD  Y+@0,R30
	STD  Y+@0+1,R31
	STD  Y+@0+2,R22
	STD  Y+@0+3,R23
	.ENDM

	.MACRO __PUTD2S
	STD  Y+@0,R26
	STD  Y+@0+1,R27
	STD  Y+@0+2,R24
	STD  Y+@0+3,R25
	.ENDM

	.MACRO __PUTDZ2
	STD  Z+@0,R26
	STD  Z+@0+1,R27
	STD  Z+@0+2,R24
	STD  Z+@0+3,R25
	.ENDM

	.MACRO __CLRD1S
	STD  Y+@0,R30
	STD  Y+@0+1,R30
	STD  Y+@0+2,R30
	STD  Y+@0+3,R30
	.ENDM

	.MACRO __POINTB1MN
	LDI  R30,LOW(@0+(@1))
	.ENDM

	.MACRO __POINTW1MN
	LDI  R30,LOW(@0+(@1))
	LDI  R31,HIGH(@0+(@1))
	.ENDM

	.MACRO __POINTD1M
	LDI  R30,LOW(@0)
	LDI  R31,HIGH(@0)
	LDI  R22,BYTE3(@0)
	LDI  R23,BYTE4(@0)
	.ENDM

	.MACRO __POINTW1FN
	LDI  R30,LOW(2*@0+(@1))
	LDI  R31,HIGH(2*@0+(@1))
	.ENDM

	.MACRO __POINTD1FN
	LDI  R30,LOW(2*@0+(@1))
	LDI  R31,HIGH(2*@0+(@1))
	LDI  R22,BYTE3(2*@0+(@1))
	LDI  R23,BYTE4(2*@0+(@1))
	.ENDM

	.MACRO __POINTB2MN
	LDI  R26,LOW(@0+(@1))
	.ENDM

	.MACRO __POINTW2MN
	LDI  R26,LOW(@0+(@1))
	LDI  R27,HIGH(@0+(@1))
	.ENDM

	.MACRO __POINTW2FN
	LDI  R26,LOW(2*@0+(@1))
	LDI  R27,HIGH(2*@0+(@1))
	.ENDM

	.MACRO __POINTD2FN
	LDI  R26,LOW(2*@0+(@1))
	LDI  R27,HIGH(2*@0+(@1))
	LDI  R24,BYTE3(2*@0+(@1))
	LDI  R25,BYTE4(2*@0+(@1))
	.ENDM

	.MACRO __POINTBRM
	LDI  R@0,LOW(@1)
	.ENDM

	.MACRO __POINTWRM
	LDI  R@0,LOW(@2)
	LDI  R@1,HIGH(@2)
	.ENDM

	.MACRO __POINTBRMN
	LDI  R@0,LOW(@1+(@2))
	.ENDM

	.MACRO __POINTWRMN
	LDI  R@0,LOW(@2+(@3))
	LDI  R@1,HIGH(@2+(@3))
	.ENDM

	.MACRO __POINTWRFN
	LDI  R@0,LOW(@2*2+(@3))
	LDI  R@1,HIGH(@2*2+(@3))
	.ENDM

	.MACRO __GETD1N
	LDI  R30,LOW(@0)
	LDI  R31,HIGH(@0)
	LDI  R22,BYTE3(@0)
	LDI  R23,BYTE4(@0)
	.ENDM

	.MACRO __GETD2N
	LDI  R26,LOW(@0)
	LDI  R27,HIGH(@0)
	LDI  R24,BYTE3(@0)
	LDI  R25,BYTE4(@0)
	.ENDM

	.MACRO __GETB1MN
	LDS  R30,@0+(@1)
	.ENDM

	.MACRO __GETB1HMN
	LDS  R31,@0+(@1)
	.ENDM

	.MACRO __GETW1MN
	LDS  R30,@0+(@1)
	LDS  R31,@0+(@1)+1
	.ENDM

	.MACRO __GETD1MN
	LDS  R30,@0+(@1)
	LDS  R31,@0+(@1)+1
	LDS  R22,@0+(@1)+2
	LDS  R23,@0+(@1)+3
	.ENDM

	.MACRO __GETBRMN
	LDS  R@0,@1+(@2)
	.ENDM

	.MACRO __GETWRMN
	LDS  R@0,@2+(@3)
	LDS  R@1,@2+(@3)+1
	.ENDM

	.MACRO __GETWRZ
	LDD  R@0,Z+@2
	LDD  R@1,Z+@2+1
	.ENDM

	.MACRO __GETD2Z
	LDD  R26,Z+@0
	LDD  R27,Z+@0+1
	LDD  R24,Z+@0+2
	LDD  R25,Z+@0+3
	.ENDM

	.MACRO __GETB2MN
	LDS  R26,@0+(@1)
	.ENDM

	.MACRO __GETW2MN
	LDS  R26,@0+(@1)
	LDS  R27,@0+(@1)+1
	.ENDM

	.MACRO __GETD2MN
	LDS  R26,@0+(@1)
	LDS  R27,@0+(@1)+1
	LDS  R24,@0+(@1)+2
	LDS  R25,@0+(@1)+3
	.ENDM

	.MACRO __PUTB1MN
	STS  @0+(@1),R30
	.ENDM

	.MACRO __PUTW1MN
	STS  @0+(@1),R30
	STS  @0+(@1)+1,R31
	.ENDM

	.MACRO __PUTD1MN
	STS  @0+(@1),R30
	STS  @0+(@1)+1,R31
	STS  @0+(@1)+2,R22
	STS  @0+(@1)+3,R23
	.ENDM

	.MACRO __PUTB1EN
	LDI  R26,LOW(@0+(@1))
	LDI  R27,HIGH(@0+(@1))
	CALL __EEPROMWRB
	.ENDM

	.MACRO __PUTW1EN
	LDI  R26,LOW(@0+(@1))
	LDI  R27,HIGH(@0+(@1))
	CALL __EEPROMWRW
	.ENDM

	.MACRO __PUTD1EN
	LDI  R26,LOW(@0+(@1))
	LDI  R27,HIGH(@0+(@1))
	CALL __EEPROMWRD
	.ENDM

	.MACRO __PUTBR0MN
	STS  @0+(@1),R0
	.ENDM

	.MACRO __PUTBMRN
	STS  @0+(@1),R@2
	.ENDM

	.MACRO __PUTWMRN
	STS  @0+(@1),R@2
	STS  @0+(@1)+1,R@3
	.ENDM

	.MACRO __PUTBZR
	STD  Z+@1,R@0
	.ENDM

	.MACRO __PUTWZR
	STD  Z+@2,R@0
	STD  Z+@2+1,R@1
	.ENDM

	.MACRO __GETW1R
	MOV  R30,R@0
	MOV  R31,R@1
	.ENDM

	.MACRO __GETW2R
	MOV  R26,R@0
	MOV  R27,R@1
	.ENDM

	.MACRO __GETWRN
	LDI  R@0,LOW(@2)
	LDI  R@1,HIGH(@2)
	.ENDM

	.MACRO __PUTW1R
	MOV  R@0,R30
	MOV  R@1,R31
	.ENDM

	.MACRO __PUTW2R
	MOV  R@0,R26
	MOV  R@1,R27
	.ENDM

	.MACRO __ADDWRN
	SUBI R@0,LOW(-@2)
	SBCI R@1,HIGH(-@2)
	.ENDM

	.MACRO __ADDWRR
	ADD  R@0,R@2
	ADC  R@1,R@3
	.ENDM

	.MACRO __SUBWRN
	SUBI R@0,LOW(@2)
	SBCI R@1,HIGH(@2)
	.ENDM

	.MACRO __SUBWRR
	SUB  R@0,R@2
	SBC  R@1,R@3
	.ENDM

	.MACRO __ANDWRN
	ANDI R@0,LOW(@2)
	ANDI R@1,HIGH(@2)
	.ENDM

	.MACRO __ANDWRR
	AND  R@0,R@2
	AND  R@1,R@3
	.ENDM

	.MACRO __ORWRN
	ORI  R@0,LOW(@2)
	ORI  R@1,HIGH(@2)
	.ENDM

	.MACRO __ORWRR
	OR   R@0,R@2
	OR   R@1,R@3
	.ENDM

	.MACRO __EORWRR
	EOR  R@0,R@2
	EOR  R@1,R@3
	.ENDM

	.MACRO __GETWRS
	LDD  R@0,Y+@2
	LDD  R@1,Y+@2+1
	.ENDM

	.MACRO __PUTBSR
	STD  Y+@1,R@0
	.ENDM

	.MACRO __PUTWSR
	STD  Y+@2,R@0
	STD  Y+@2+1,R@1
	.ENDM

	.MACRO __MOVEWRR
	MOV  R@0,R@2
	MOV  R@1,R@3
	.ENDM

	.MACRO __INWR
	IN   R@0,@2
	IN   R@1,@2+1
	.ENDM

	.MACRO __OUTWR
	OUT  @2+1,R@1
	OUT  @2,R@0
	.ENDM

	.MACRO __CALL1MN
	LDS  R30,@0+(@1)
	LDS  R31,@0+(@1)+1
	ICALL
	.ENDM

	.MACRO __CALL1FN
	LDI  R30,LOW(2*@0+(@1))
	LDI  R31,HIGH(2*@0+(@1))
	CALL __GETW1PF
	ICALL
	.ENDM

	.MACRO __CALL2EN
	PUSH R26
	PUSH R27
	LDI  R26,LOW(@0+(@1))
	LDI  R27,HIGH(@0+(@1))
	CALL __EEPROMRDW
	POP  R27
	POP  R26
	ICALL
	.ENDM

	.MACRO __CALL2EX
	SUBI R26,LOW(-@0)
	SBCI R27,HIGH(-@0)
	CALL __EEPROMRDD
	ICALL
	.ENDM

	.MACRO __GETW1STACK
	IN   R30,SPL
	IN   R31,SPH
	ADIW R30,@0+1
	LD   R0,Z+
	LD   R31,Z
	MOV  R30,R0
	.ENDM

	.MACRO __GETD1STACK
	IN   R30,SPL
	IN   R31,SPH
	ADIW R30,@0+1
	LD   R0,Z+
	LD   R1,Z+
	LD   R22,Z
	MOVW R30,R0
	.ENDM

	.MACRO __NBST
	BST  R@0,@1
	IN   R30,SREG
	LDI  R31,0x40
	EOR  R30,R31
	OUT  SREG,R30
	.ENDM


	.MACRO __PUTB1SN
	LDD  R26,Y+@0
	LDD  R27,Y+@0+1
	SUBI R26,LOW(-@1)
	SBCI R27,HIGH(-@1)
	ST   X,R30
	.ENDM

	.MACRO __PUTW1SN
	LDD  R26,Y+@0
	LDD  R27,Y+@0+1
	SUBI R26,LOW(-@1)
	SBCI R27,HIGH(-@1)
	ST   X+,R30
	ST   X,R31
	.ENDM

	.MACRO __PUTD1SN
	LDD  R26,Y+@0
	LDD  R27,Y+@0+1
	SUBI R26,LOW(-@1)
	SBCI R27,HIGH(-@1)
	CALL __PUTDP1
	.ENDM

	.MACRO __PUTB1SNS
	LDD  R26,Y+@0
	LDD  R27,Y+@0+1
	ADIW R26,@1
	ST   X,R30
	.ENDM

	.MACRO __PUTW1SNS
	LDD  R26,Y+@0
	LDD  R27,Y+@0+1
	ADIW R26,@1
	ST   X+,R30
	ST   X,R31
	.ENDM

	.MACRO __PUTD1SNS
	LDD  R26,Y+@0
	LDD  R27,Y+@0+1
	ADIW R26,@1
	CALL __PUTDP1
	.ENDM

	.MACRO __PUTB1PMN
	LDS  R26,@0
	LDS  R27,@0+1
	SUBI R26,LOW(-@1)
	SBCI R27,HIGH(-@1)
	ST   X,R30
	.ENDM

	.MACRO __PUTW1PMN
	LDS  R26,@0
	LDS  R27,@0+1
	SUBI R26,LOW(-@1)
	SBCI R27,HIGH(-@1)
	ST   X+,R30
	ST   X,R31
	.ENDM

	.MACRO __PUTD1PMN
	LDS  R26,@0
	LDS  R27,@0+1
	SUBI R26,LOW(-@1)
	SBCI R27,HIGH(-@1)
	CALL __PUTDP1
	.ENDM

	.MACRO __PUTB1PMNS
	LDS  R26,@0
	LDS  R27,@0+1
	ADIW R26,@1
	ST   X,R30
	.ENDM

	.MACRO __PUTW1PMNS
	LDS  R26,@0
	LDS  R27,@0+1
	ADIW R26,@1
	ST   X+,R30
	ST   X,R31
	.ENDM

	.MACRO __PUTD1PMNS
	LDS  R26,@0
	LDS  R27,@0+1
	ADIW R26,@1
	CALL __PUTDP1
	.ENDM

	.MACRO __PUTB1RN
	MOVW R26,R@0
	SUBI R26,LOW(-@1)
	SBCI R27,HIGH(-@1)
	ST   X,R30
	.ENDM

	.MACRO __PUTW1RN
	MOVW R26,R@0
	SUBI R26,LOW(-@1)
	SBCI R27,HIGH(-@1)
	ST   X+,R30
	ST   X,R31
	.ENDM

	.MACRO __PUTD1RN
	MOVW R26,R@0
	SUBI R26,LOW(-@1)
	SBCI R27,HIGH(-@1)
	CALL __PUTDP1
	.ENDM

	.MACRO __PUTB1RNS
	MOVW R26,R@0
	ADIW R26,@1
	ST   X,R30
	.ENDM

	.MACRO __PUTW1RNS
	MOVW R26,R@0
	ADIW R26,@1
	ST   X+,R30
	ST   X,R31
	.ENDM

	.MACRO __PUTD1RNS
	MOVW R26,R@0
	ADIW R26,@1
	CALL __PUTDP1
	.ENDM

	.MACRO __PUTB1RON
	MOV  R26,R@0
	MOV  R27,R@1
	SUBI R26,LOW(-@2)
	SBCI R27,HIGH(-@2)
	ST   X,R30
	.ENDM

	.MACRO __PUTW1RON
	MOV  R26,R@0
	MOV  R27,R@1
	SUBI R26,LOW(-@2)
	SBCI R27,HIGH(-@2)
	ST   X+,R30
	ST   X,R31
	.ENDM

	.MACRO __PUTD1RON
	MOV  R26,R@0
	MOV  R27,R@1
	SUBI R26,LOW(-@2)
	SBCI R27,HIGH(-@2)
	CALL __PUTDP1
	.ENDM

	.MACRO __PUTB1RONS
	MOV  R26,R@0
	MOV  R27,R@1
	ADIW R26,@2
	ST   X,R30
	.ENDM

	.MACRO __PUTW1RONS
	MOV  R26,R@0
	MOV  R27,R@1
	ADIW R26,@2
	ST   X+,R30
	ST   X,R31
	.ENDM

	.MACRO __PUTD1RONS
	MOV  R26,R@0
	MOV  R27,R@1
	ADIW R26,@2
	CALL __PUTDP1
	.ENDM


	.MACRO __GETB1SX
	MOVW R30,R28
	SUBI R30,LOW(-@0)
	SBCI R31,HIGH(-@0)
	LD   R30,Z
	.ENDM

	.MACRO __GETB1HSX
	MOVW R30,R28
	SUBI R30,LOW(-@0)
	SBCI R31,HIGH(-@0)
	LD   R31,Z
	.ENDM

	.MACRO __GETW1SX
	MOVW R30,R28
	SUBI R30,LOW(-@0)
	SBCI R31,HIGH(-@0)
	LD   R0,Z+
	LD   R31,Z
	MOV  R30,R0
	.ENDM

	.MACRO __GETD1SX
	MOVW R30,R28
	SUBI R30,LOW(-@0)
	SBCI R31,HIGH(-@0)
	LD   R0,Z+
	LD   R1,Z+
	LD   R22,Z+
	LD   R23,Z
	MOVW R30,R0
	.ENDM

	.MACRO __GETB2SX
	MOVW R26,R28
	SUBI R26,LOW(-@0)
	SBCI R27,HIGH(-@0)
	LD   R26,X
	.ENDM

	.MACRO __GETW2SX
	MOVW R26,R28
	SUBI R26,LOW(-@0)
	SBCI R27,HIGH(-@0)
	LD   R0,X+
	LD   R27,X
	MOV  R26,R0
	.ENDM

	.MACRO __GETD2SX
	MOVW R26,R28
	SUBI R26,LOW(-@0)
	SBCI R27,HIGH(-@0)
	LD   R0,X+
	LD   R1,X+
	LD   R24,X+
	LD   R25,X
	MOVW R26,R0
	.ENDM

	.MACRO __GETBRSX
	MOVW R30,R28
	SUBI R30,LOW(-@1)
	SBCI R31,HIGH(-@1)
	LD   R@0,Z
	.ENDM

	.MACRO __GETWRSX
	MOVW R30,R28
	SUBI R30,LOW(-@2)
	SBCI R31,HIGH(-@2)
	LD   R@0,Z+
	LD   R@1,Z
	.ENDM

	.MACRO __GETBRSX2
	MOVW R26,R28
	SUBI R26,LOW(-@1)
	SBCI R27,HIGH(-@1)
	LD   R@0,X
	.ENDM

	.MACRO __GETWRSX2
	MOVW R26,R28
	SUBI R26,LOW(-@2)
	SBCI R27,HIGH(-@2)
	LD   R@0,X+
	LD   R@1,X
	.ENDM

	.MACRO __LSLW8SX
	MOVW R30,R28
	SUBI R30,LOW(-@0)
	SBCI R31,HIGH(-@0)
	LD   R31,Z
	CLR  R30
	.ENDM

	.MACRO __PUTB1SX
	MOVW R26,R28
	SUBI R26,LOW(-@0)
	SBCI R27,HIGH(-@0)
	ST   X,R30
	.ENDM

	.MACRO __PUTW1SX
	MOVW R26,R28
	SUBI R26,LOW(-@0)
	SBCI R27,HIGH(-@0)
	ST   X+,R30
	ST   X,R31
	.ENDM

	.MACRO __PUTD1SX
	MOVW R26,R28
	SUBI R26,LOW(-@0)
	SBCI R27,HIGH(-@0)
	ST   X+,R30
	ST   X+,R31
	ST   X+,R22
	ST   X,R23
	.ENDM

	.MACRO __CLRW1SX
	MOVW R26,R28
	SUBI R26,LOW(-@0)
	SBCI R27,HIGH(-@0)
	ST   X+,R30
	ST   X,R30
	.ENDM

	.MACRO __CLRD1SX
	MOVW R26,R28
	SUBI R26,LOW(-@0)
	SBCI R27,HIGH(-@0)
	ST   X+,R30
	ST   X+,R30
	ST   X+,R30
	ST   X,R30
	.ENDM

	.MACRO __PUTB2SX
	MOVW R30,R28
	SUBI R30,LOW(-@0)
	SBCI R31,HIGH(-@0)
	ST   Z,R26
	.ENDM

	.MACRO __PUTW2SX
	MOVW R30,R28
	SUBI R30,LOW(-@0)
	SBCI R31,HIGH(-@0)
	ST   Z+,R26
	ST   Z,R27
	.ENDM

	.MACRO __PUTD2SX
	MOVW R30,R28
	SUBI R30,LOW(-@0)
	SBCI R31,HIGH(-@0)
	ST   Z+,R26
	ST   Z+,R27
	ST   Z+,R24
	ST   Z,R25
	.ENDM

	.MACRO __PUTBSRX
	MOVW R30,R28
	SUBI R30,LOW(-@1)
	SBCI R31,HIGH(-@1)
	ST   Z,R@0
	.ENDM

	.MACRO __PUTWSRX
	MOVW R30,R28
	SUBI R30,LOW(-@2)
	SBCI R31,HIGH(-@2)
	ST   Z+,R@0
	ST   Z,R@1
	.ENDM

	.MACRO __PUTB1SNX
	MOVW R26,R28
	SUBI R26,LOW(-@0)
	SBCI R27,HIGH(-@0)
	LD   R0,X+
	LD   R27,X
	MOV  R26,R0
	SUBI R26,LOW(-@1)
	SBCI R27,HIGH(-@1)
	ST   X,R30
	.ENDM

	.MACRO __PUTW1SNX
	MOVW R26,R28
	SUBI R26,LOW(-@0)
	SBCI R27,HIGH(-@0)
	LD   R0,X+
	LD   R27,X
	MOV  R26,R0
	SUBI R26,LOW(-@1)
	SBCI R27,HIGH(-@1)
	ST   X+,R30
	ST   X,R31
	.ENDM

	.MACRO __PUTD1SNX
	MOVW R26,R28
	SUBI R26,LOW(-@0)
	SBCI R27,HIGH(-@0)
	LD   R0,X+
	LD   R27,X
	MOV  R26,R0
	SUBI R26,LOW(-@1)
	SBCI R27,HIGH(-@1)
	ST   X+,R30
	ST   X+,R31
	ST   X+,R22
	ST   X,R23
	.ENDM

	.MACRO __MULBRR
	MULS R@0,R@1
	MOVW R30,R0
	.ENDM

	.MACRO __MULBRRU
	MUL  R@0,R@1
	MOVW R30,R0
	.ENDM

	.MACRO __MULBRR0
	MULS R@0,R@1
	.ENDM

	.MACRO __MULBRRU0
	MUL  R@0,R@1
	.ENDM

	.MACRO __MULBNWRU
	LDI  R26,@2
	MUL  R26,R@0
	MOVW R30,R0
	MUL  R26,R@1
	ADD  R31,R0
	.ENDM

;NAME DEFINITIONS FOR GLOBAL VARIABLES ALLOCATED TO REGISTERS
	.DEF _systemstate=R5
	.DEF _s=R6
	.DEF _s_msb=R7
	.DEF _m=R8
	.DEF _m_msb=R9
	.DEF _h=R10
	.DEF _h_msb=R11
	.DEF _flag=R12
	.DEF _flag_msb=R13

	.CSEG
	.ORG 0x00

;START OF CODE MARKER
__START_OF_CODE:

;INTERRUPT VECTORS
	JMP  __RESET
	JMP  _onPause
	JMP  _onReStart
	JMP  _keyPressed
	JMP  0x00
	JMP  0x00
	JMP  0x00
	JMP  _comparematch
	JMP  0x00
	JMP  0x00
	JMP  0x00
	JMP  0x00
	JMP  0x00
	JMP  0x00
	JMP  0x00
	JMP  0x00
	JMP  0x00
	JMP  0x00
	JMP  0x00
	JMP  0x00
	JMP  0x00

_tbl10_G102:
	.DB  0x10,0x27,0xE8,0x3,0x64,0x0,0xA,0x0
	.DB  0x1,0x0
_tbl16_G102:
	.DB  0x0,0x10,0x0,0x1,0x10,0x0,0x1,0x0

;GLOBAL REGISTER VARIABLES INITIALIZATION
__REG_VARS:
	.DB  0x1,0x0,0x0,0x0
	.DB  0x0,0x0,0x0,0x0
	.DB  0x0

_0x3:
	.DB  0x7D,0xBD,0xDD,0xED,0x7B,0xBB,0xDB,0xEB
	.DB  0x77,0xB7,0xD7,0xE7
_0x0:
	.DB  0x25,0x64,0x25,0x64,0x3A,0x25,0x64,0x25
	.DB  0x64,0x3A,0x25,0x64,0x25,0x64,0x0
_0x2000003:
	.DB  0x80,0xC0
_0x2020060:
	.DB  0x1
_0x2020000:
	.DB  0x2D,0x4E,0x41,0x4E,0x0,0x49,0x4E,0x46
	.DB  0x0

__GLOBAL_INI_TBL:
	.DW  0x09
	.DW  0x05
	.DW  __REG_VARS*2

	.DW  0x0C
	.DW  _keypadPatterns
	.DW  _0x3*2

	.DW  0x02
	.DW  __base_y_G100
	.DW  _0x2000003*2

	.DW  0x01
	.DW  __seed_G101
	.DW  _0x2020060*2

_0xFFFFFFFF:
	.DW  0

#define __GLOBAL_INI_TBL_PRESENT 1

__RESET:
	CLI
	CLR  R30
	OUT  EECR,R30

;INTERRUPT VECTORS ARE PLACED
;AT THE START OF FLASH
	LDI  R31,1
	OUT  GICR,R31
	OUT  GICR,R30
	OUT  MCUCR,R30

;CLEAR R2-R14
	LDI  R24,(14-2)+1
	LDI  R26,2
	CLR  R27
__CLEAR_REG:
	ST   X+,R30
	DEC  R24
	BRNE __CLEAR_REG

;CLEAR SRAM
	LDI  R24,LOW(__CLEAR_SRAM_SIZE)
	LDI  R25,HIGH(__CLEAR_SRAM_SIZE)
	LDI  R26,__SRAM_START
__CLEAR_SRAM:
	ST   X+,R30
	SBIW R24,1
	BRNE __CLEAR_SRAM

;GLOBAL VARIABLES INITIALIZATION
	LDI  R30,LOW(__GLOBAL_INI_TBL*2)
	LDI  R31,HIGH(__GLOBAL_INI_TBL*2)
__GLOBAL_INI_NEXT:
	LPM  R24,Z+
	LPM  R25,Z+
	SBIW R24,0
	BREQ __GLOBAL_INI_END
	LPM  R26,Z+
	LPM  R27,Z+
	LPM  R0,Z+
	LPM  R1,Z+
	MOVW R22,R30
	MOVW R30,R0
__GLOBAL_INI_LOOP:
	LPM  R0,Z+
	ST   X+,R0
	SBIW R24,1
	BRNE __GLOBAL_INI_LOOP
	MOVW R30,R22
	RJMP __GLOBAL_INI_NEXT
__GLOBAL_INI_END:

;HARDWARE STACK POINTER INITIALIZATION
	LDI  R30,LOW(__SRAM_END-__HEAP_SIZE)
	OUT  SPL,R30
	LDI  R30,HIGH(__SRAM_END-__HEAP_SIZE)
	OUT  SPH,R30

;DATA STACK POINTER INITIALIZATION
	LDI  R28,LOW(__SRAM_START+__DSTACK_SIZE)
	LDI  R29,HIGH(__SRAM_START+__DSTACK_SIZE)

	JMP  _main

	.ESEG
	.ORG 0

	.DSEG
	.ORG 0x260

	.CSEG
;
;
;#include <io.h>
	#ifndef __SLEEP_DEFINED__
	#define __SLEEP_DEFINED__
	.EQU __se_bit=0x80
	.EQU __sm_mask=0x70
	.EQU __sm_powerdown=0x20
	.EQU __sm_powersave=0x30
	.EQU __sm_standby=0x60
	.EQU __sm_ext_standby=0x70
	.EQU __sm_adc_noise_red=0x10
	.SET power_ctrl_reg=mcucr
	#endif
;#include <mega32.h>
;#include <alcd.h>
;#include <stdlib.h>
;#include <stdio.h>
;#include <delay.h>
;
;
;unsigned char EEPROM_read(unsigned char uiAddress);
;void EEPROM_write(unsigned char uiAddress, unsigned char ucData);
;
;
;enum SYSTEM_STATE {UNLOCKED , LOCKED, SETPASSWORD };
;enum SYSTEM_STATE systemstate  = LOCKED;
;
;
;int s = 0;
;int m = 0;
;int h = 0;
;
;char buffer[16];
;int flag = 0;
;
;unsigned char keypadPatterns[12] = {0x7d,0xbd,0xdd,0xed,0x7b,0xbb,0xdb,0xeb,0x77,0xb7,0xd7,0xe7}; // 10 -> * , 11 -> #

	.DSEG
;
;int new_key;
;int pressed_key;
;
;void main(void)
; 0000 0020 {

	.CSEG
_main:
; .FSTART _main
; 0000 0021     char data[5];
; 0000 0022     unsigned char mychar;
; 0000 0023 
; 0000 0024 
; 0000 0025     EEPROM_write(201,2);
	SBIW R28,5
;	data -> Y+0
;	mychar -> R17
	LDI  R30,LOW(201)
	ST   -Y,R30
	LDI  R26,LOW(2)
	RCALL _EEPROM_write
; 0000 0026     mychar = EEPROM_read(201);
	LDI  R26,LOW(201)
	RCALL _EEPROM_read
	MOV  R17,R30
; 0000 0027 
; 0000 0028     PORTB.7 =1;
	SBI  0x18,7
; 0000 0029     lcd_init(16);
	LDI  R26,LOW(16)
	CALL _lcd_init
; 0000 002A     lcd_clear();                                    // lcd initial settings
	RCALL _lcd_clear
; 0000 002B 
; 0000 002C       itoa(mychar,data);
	MOV  R30,R17
	LDI  R31,0
	ST   -Y,R31
	ST   -Y,R30
	MOVW R26,R28
	ADIW R26,2
	CALL _itoa
; 0000 002D 	 lcd_puts(data);
	MOVW R26,R28
	CALL _lcd_puts
; 0000 002E 
; 0000 002F     DDRC = 0xf0;                                   // port C settings, connected to keypad
	LDI  R30,LOW(240)
	OUT  0x14,R30
; 0000 0030     PORTC = 0x0e;
	LDI  R30,LOW(14)
	OUT  0x15,R30
; 0000 0031 
; 0000 0032     // INT2 port
; 0000 0033     DDRB.2 = 0;
	CBI  0x17,2
; 0000 0034     PORTB.2 = 1;
	SBI  0x18,2
; 0000 0035 
; 0000 0036     GICR = 1 << INT2;                                   // enable INT2
	LDI  R30,LOW(32)
	OUT  0x3B,R30
; 0000 0037     MCUCSR &= ~(1 << ISC2);                            // falling edge for INT2
	IN   R30,0x34
	ANDI R30,0xBF
	OUT  0x34,R30
; 0000 0038 
; 0000 0039     lcd_gotoxy(0,1);
	CALL SUBOPT_0x0
; 0000 003A     sprintf(buffer, "%d%d:%d%d:%d%d" ,h/10,h%10,m/10,m%10,s/10,s%10);  // initialize lcd
; 0000 003B     lcd_puts(buffer);
; 0000 003C 
; 0000 003D 
; 0000 003E 
; 0000 003F 
; 0000 0040     OCR1AH = 0x3D;
	LDI  R30,LOW(61)
	OUT  0x2B,R30
; 0000 0041     OCR1AL = 0x09;                                  // OCR1A = ox3D09 = 15625 --> 15625 * 64 / 1000000 = 1 second
	LDI  R30,LOW(9)
	OUT  0x2A,R30
; 0000 0042 
; 0000 0043     #asm("sei");                                    // globally enable interrupts
	sei
; 0000 0044     TIMSK |= (1 << TOIE1) | (1 << OCIE1A) ;         // enable timer/counter 1 interrupt and timer/counter 1 compare matc ...
	IN   R30,0x39
	ORI  R30,LOW(0x14)
	OUT  0x39,R30
; 0000 0045 
; 0000 0046     TCCR1B = 0x0B;                                  // f(t/c) = f(IO) / 64 from prescaler || enable CTC mode and set TOP ...
	LDI  R30,LOW(11)
	OUT  0x2E,R30
; 0000 0047 
; 0000 0048 
; 0000 0049     DDRB.0 = DDRB.1 = 1; // pin.0 for yellow LED and pin.1 for green LED.
	SBI  0x17,1
	SBI  0x17,0
; 0000 004A 
; 0000 004B 
; 0000 004C     DDRD.2 = DDRD.3 = 0;
	CBI  0x11,3
	CBI  0x11,2
; 0000 004D     PORTD.2 = PORTD.3 = 1; //pull up
	SBI  0x12,3
	SBI  0x12,2
; 0000 004E 
; 0000 004F     MCUCR |= 0<<ISC00;
	IN   R30,0x35
	OUT  0x35,R30
; 0000 0050     MCUCR |= 1<<ISC01; // falling edge.
	IN   R30,0x35
	ORI  R30,2
	OUT  0x35,R30
; 0000 0051     GICR |= 1<<INT0;  // enable INT0
	IN   R30,0x3B
	ORI  R30,0x40
	OUT  0x3B,R30
; 0000 0052 
; 0000 0053     MCUCR |= 0<<ISC10;
	IN   R30,0x35
	OUT  0x35,R30
; 0000 0054     MCUCR |= 1<<ISC11; // falling edge
	IN   R30,0x35
	ORI  R30,8
	OUT  0x35,R30
; 0000 0055     GICR |= 1<<INT1;  // enable INT1
	IN   R30,0x3B
	ORI  R30,0x80
	OUT  0x3B,R30
; 0000 0056 
; 0000 0057 
; 0000 0058 
; 0000 0059 
; 0000 005A 
; 0000 005B }
	ADIW R28,5
_0x16:
	RJMP _0x16
; .FEND
;
;
;interrupt[TIM1_COMPA] void comparematch(void){     // interrupt happens every second
; 0000 005E interrupt[8] void comparematch(void){
_comparematch:
; .FSTART _comparematch
	ST   -Y,R0
	ST   -Y,R1
	ST   -Y,R15
	ST   -Y,R22
	ST   -Y,R23
	ST   -Y,R24
	ST   -Y,R25
	ST   -Y,R26
	ST   -Y,R27
	ST   -Y,R30
	ST   -Y,R31
	IN   R30,SREG
	ST   -Y,R30
; 0000 005F 
; 0000 0060 
; 0000 0061 
; 0000 0062 
; 0000 0063     if (flag == 0){
	MOV  R0,R12
	OR   R0,R13
	BRNE _0x17
; 0000 0064         PORTB.0 = 0;
	CBI  0x18,0
; 0000 0065         PORTB.1 = 0;
	CBI  0x18,1
; 0000 0066         //Second
; 0000 0067         s = s + 1;
	MOVW R30,R6
	ADIW R30,1
	MOVW R6,R30
; 0000 0068         if (s == 60) {
	LDI  R30,LOW(60)
	LDI  R31,HIGH(60)
	CP   R30,R6
	CPC  R31,R7
	BRNE _0x1C
; 0000 0069             s = 0;
	CLR  R6
	CLR  R7
; 0000 006A             m++;
	MOVW R30,R8
	ADIW R30,1
	MOVW R8,R30
; 0000 006B             PORTB.0 = 1;
	SBI  0x18,0
; 0000 006C         }
; 0000 006D         //Min
; 0000 006E         if (m == 60 ) {
_0x1C:
	LDI  R30,LOW(60)
	LDI  R31,HIGH(60)
	CP   R30,R8
	CPC  R31,R9
	BRNE _0x1F
; 0000 006F             m = 0;
	CLR  R8
	CLR  R9
; 0000 0070             h++;
	MOVW R30,R10
	ADIW R30,1
	MOVW R10,R30
; 0000 0071             PORTB.1 = 1;
	SBI  0x18,1
; 0000 0072         }
; 0000 0073         //Hour
; 0000 0074         if (h == 24){
_0x1F:
	LDI  R30,LOW(24)
	LDI  R31,HIGH(24)
	CP   R30,R10
	CPC  R31,R11
	BRNE _0x22
; 0000 0075             h = 0;
	CLR  R10
	CLR  R11
; 0000 0076         }
; 0000 0077     }
_0x22:
; 0000 0078 
; 0000 0079     lcd_gotoxy(0,1);
_0x17:
	CALL SUBOPT_0x0
; 0000 007A     sprintf(buffer, "%d%d:%d%d:%d%d" ,h/10,h%10,m/10,m%10,s/10,s%10);
; 0000 007B     lcd_puts(buffer);
; 0000 007C 
; 0000 007D }
	LD   R30,Y+
	OUT  SREG,R30
	LD   R31,Y+
	LD   R30,Y+
	LD   R27,Y+
	LD   R26,Y+
	LD   R25,Y+
	LD   R24,Y+
	LD   R23,Y+
	LD   R22,Y+
	LD   R15,Y+
	LD   R1,Y+
	LD   R0,Y+
	RETI
; .FEND
;
;interrupt [EXT_INT0] void onPause (void){
; 0000 007F interrupt [2] void onPause (void){
_onPause:
; .FSTART _onPause
	ST   -Y,R0
	ST   -Y,R30
	ST   -Y,R31
	IN   R30,SREG
	ST   -Y,R30
; 0000 0080     if (flag == 1) flag = 0;
	LDI  R30,LOW(1)
	LDI  R31,HIGH(1)
	CP   R30,R12
	CPC  R31,R13
	BRNE _0x23
	CLR  R12
	CLR  R13
; 0000 0081     else if (flag == 0) flag = 1;
	RJMP _0x24
_0x23:
	MOV  R0,R12
	OR   R0,R13
	BRNE _0x25
	LDI  R30,LOW(1)
	LDI  R31,HIGH(1)
	MOVW R12,R30
; 0000 0082 }
_0x25:
_0x24:
	LD   R30,Y+
	OUT  SREG,R30
	LD   R31,Y+
	LD   R30,Y+
	LD   R0,Y+
	RETI
; .FEND
;
;interrupt [EXT_INT1] void onReStart (void){
; 0000 0084 interrupt [3] void onReStart (void){
_onReStart:
; .FSTART _onReStart
	ST   -Y,R30
	IN   R30,SREG
; 0000 0085     s = 0;
	CLR  R6
	CLR  R7
; 0000 0086     m = 0;
	CLR  R8
	CLR  R9
; 0000 0087     h = 0;
	CLR  R10
	CLR  R11
; 0000 0088 }
	OUT  SREG,R30
	LD   R30,Y+
	RETI
; .FEND
;
;
;interrupt [EXT_INT2] void keyPressed(void){
; 0000 008B interrupt [4] void keyPressed(void){
_keyPressed:
; .FSTART _keyPressed
	ST   -Y,R24
	ST   -Y,R26
	ST   -Y,R27
	ST   -Y,R30
	ST   -Y,R31
	IN   R30,SREG
	ST   -Y,R30
; 0000 008C 
; 0000 008D 
; 0000 008E 
; 0000 008F    // find key
; 0000 0090     char data[5];
; 0000 0091     int i,index;
; 0000 0092     unsigned char pattern;
; 0000 0093     // delay_ms(20);   debounce
; 0000 0094 
; 0000 0095     new_key = 1;
	SBIW R28,5
	CALL __SAVELOCR6
;	data -> Y+6
;	i -> R16,R17
;	index -> R18,R19
;	pattern -> R21
	LDI  R30,LOW(1)
	LDI  R31,HIGH(1)
	STS  _new_key,R30
	STS  _new_key+1,R31
; 0000 0096 
; 0000 0097 
; 0000 0098     DDRC |= 0xf0;                       // leaves portc.0 unchanged. portc.0 is connected to sensor and used by ADC.
	IN   R30,0x14
	ORI  R30,LOW(0xF0)
	OUT  0x14,R30
; 0000 0099     DDRC &= 0xf1;                       // same as above
	IN   R30,0x14
	ANDI R30,LOW(0xF1)
	OUT  0x14,R30
; 0000 009A     PORTC &= 0x0f;
	IN   R30,0x15
	ANDI R30,LOW(0xF)
	OUT  0x15,R30
; 0000 009B     PORTC |= 0x0e;
	IN   R30,0x15
	ORI  R30,LOW(0xE)
	OUT  0x15,R30
; 0000 009C     delay_us(5);
	__DELAY_USB 2
; 0000 009D     pattern = (PINC & 0b00001111);
	IN   R30,0x13
	ANDI R30,LOW(0xF)
	MOV  R21,R30
; 0000 009E     DDRC |= 0x0e;
	IN   R30,0x14
	ORI  R30,LOW(0xE)
	OUT  0x14,R30
; 0000 009F     DDRC &= 0x0f;
	IN   R30,0x14
	ANDI R30,LOW(0xF)
	OUT  0x14,R30
; 0000 00A0     PORTC |= 0xf0;
	IN   R30,0x15
	ORI  R30,LOW(0xF0)
	OUT  0x15,R30
; 0000 00A1     PORTC &= 0xf1;
	IN   R30,0x15
	ANDI R30,LOW(0xF1)
	OUT  0x15,R30
; 0000 00A2     delay_us(5);
	__DELAY_USB 2
; 0000 00A3     pattern |= (PINC & 0b11110000) | 0x01;    // lsb is not connected to keypad, always gets the value 1
	IN   R30,0x13
	ANDI R30,LOW(0xF0)
	ORI  R30,1
	OR   R21,R30
; 0000 00A4     for(i = 0 ; i < 12 ; i++){
	__GETWRN 16,17,0
_0x27:
	__CPWRN 16,17,12
	BRGE _0x28
; 0000 00A5         if(keypadPatterns[i] == pattern){
	LDI  R26,LOW(_keypadPatterns)
	LDI  R27,HIGH(_keypadPatterns)
	ADD  R26,R16
	ADC  R27,R17
	LD   R26,X
	CP   R21,R26
	BRNE _0x29
; 0000 00A6             pressed_key = i;
	__PUTWMRN _pressed_key,0,16,17
; 0000 00A7             break;
	RJMP _0x28
; 0000 00A8             }
; 0000 00A9 
; 0000 00AA     }
_0x29:
	__ADDWRN 16,17,1
	RJMP _0x27
_0x28:
; 0000 00AB 
; 0000 00AC 
; 0000 00AD 
; 0000 00AE 
; 0000 00AF 
; 0000 00B0 }
	CALL __LOADLOCR6
	ADIW R28,11
	LD   R30,Y+
	OUT  SREG,R30
	LD   R31,Y+
	LD   R30,Y+
	LD   R27,Y+
	LD   R26,Y+
	LD   R24,Y+
	RETI
; .FEND
;
;
;void EEPROM_write(unsigned char uiAddress, unsigned char ucData){ // address is in 0-255 range
; 0000 00B3 void EEPROM_write(unsigned char uiAddress, unsigned char ucData){
_EEPROM_write:
; .FSTART _EEPROM_write
; 0000 00B4     /* Wait for completion of previous write */
; 0000 00B5     while(EECR & (1<<EEWE));
	ST   -Y,R26
;	uiAddress -> Y+1
;	ucData -> Y+0
_0x2A:
	SBIC 0x1C,1
	RJMP _0x2A
; 0000 00B6     /* Set up address and data registers */
; 0000 00B7     EEARH = 0;
	LDI  R30,LOW(0)
	OUT  0x1F,R30
; 0000 00B8     EEARL = uiAddress;
	LDD  R30,Y+1
	OUT  0x1E,R30
; 0000 00B9 
; 0000 00BA     EEDR = ucData;
	LD   R30,Y
	OUT  0x1D,R30
; 0000 00BB     /* Write logical one to EEMWE */
; 0000 00BC     EECR |= (1<<EEMWE);
	SBI  0x1C,2
; 0000 00BD     /* Start eeprom write by setting EEWE */
; 0000 00BE     EECR |= (1<<EEWE);
	SBI  0x1C,1
; 0000 00BF }
	RJMP _0x20C0003
; .FEND
;
;
;unsigned char EEPROM_read(unsigned char uiAddress){     // address is in 0-255 range
; 0000 00C2 unsigned char EEPROM_read(unsigned char uiAddress){
_EEPROM_read:
; .FSTART _EEPROM_read
; 0000 00C3     /* Wait for completion of previous write */
; 0000 00C4     while(EECR & (1<<EEWE));
	ST   -Y,R26
;	uiAddress -> Y+0
_0x2D:
	SBIC 0x1C,1
	RJMP _0x2D
; 0000 00C5     /* Set up address register */
; 0000 00C6     EEARH = 0;
	LDI  R30,LOW(0)
	OUT  0x1F,R30
; 0000 00C7     EEARL = uiAddress;
	LD   R30,Y
	OUT  0x1E,R30
; 0000 00C8     /* Start eeprom read by writing EERE */
; 0000 00C9     EECR |= (1<<EERE);
	SBI  0x1C,0
; 0000 00CA     /* Return data from data register */
; 0000 00CB     return EEDR;
	IN   R30,0x1D
	RJMP _0x20C0002
; 0000 00CC }
; .FEND
	#ifndef __SLEEP_DEFINED__
	#define __SLEEP_DEFINED__
	.EQU __se_bit=0x80
	.EQU __sm_mask=0x70
	.EQU __sm_powerdown=0x20
	.EQU __sm_powersave=0x30
	.EQU __sm_standby=0x60
	.EQU __sm_ext_standby=0x70
	.EQU __sm_adc_noise_red=0x10
	.SET power_ctrl_reg=mcucr
	#endif

	.DSEG

	.CSEG
__lcd_write_nibble_G100:
; .FSTART __lcd_write_nibble_G100
	ST   -Y,R26
	IN   R30,0x1B
	ANDI R30,LOW(0xF)
	MOV  R26,R30
	LD   R30,Y
	ANDI R30,LOW(0xF0)
	OR   R30,R26
	OUT  0x1B,R30
	__DELAY_USB 2
	SBI  0x1B,2
	__DELAY_USB 2
	CBI  0x1B,2
	__DELAY_USB 2
	RJMP _0x20C0002
; .FEND
__lcd_write_data:
; .FSTART __lcd_write_data
	ST   -Y,R26
	LD   R26,Y
	RCALL __lcd_write_nibble_G100
    ld    r30,y
    swap  r30
    st    y,r30
	LD   R26,Y
	RCALL __lcd_write_nibble_G100
	__DELAY_USB 17
	RJMP _0x20C0002
; .FEND
_lcd_gotoxy:
; .FSTART _lcd_gotoxy
	ST   -Y,R26
	LD   R30,Y
	LDI  R31,0
	SUBI R30,LOW(-__base_y_G100)
	SBCI R31,HIGH(-__base_y_G100)
	LD   R30,Z
	LDD  R26,Y+1
	ADD  R26,R30
	RCALL __lcd_write_data
	LDD  R30,Y+1
	STS  __lcd_x,R30
	LD   R30,Y
	STS  __lcd_y,R30
_0x20C0003:
	ADIW R28,2
	RET
; .FEND
_lcd_clear:
; .FSTART _lcd_clear
	LDI  R26,LOW(2)
	CALL SUBOPT_0x1
	LDI  R26,LOW(12)
	RCALL __lcd_write_data
	LDI  R26,LOW(1)
	CALL SUBOPT_0x1
	LDI  R30,LOW(0)
	STS  __lcd_y,R30
	STS  __lcd_x,R30
	RET
; .FEND
_lcd_putchar:
; .FSTART _lcd_putchar
	ST   -Y,R26
	LD   R26,Y
	CPI  R26,LOW(0xA)
	BREQ _0x2000005
	LDS  R30,__lcd_maxx
	LDS  R26,__lcd_x
	CP   R26,R30
	BRLO _0x2000004
_0x2000005:
	LDI  R30,LOW(0)
	ST   -Y,R30
	LDS  R26,__lcd_y
	SUBI R26,-LOW(1)
	STS  __lcd_y,R26
	RCALL _lcd_gotoxy
	LD   R26,Y
	CPI  R26,LOW(0xA)
	BRNE _0x2000007
	RJMP _0x20C0002
_0x2000007:
_0x2000004:
	LDS  R30,__lcd_x
	SUBI R30,-LOW(1)
	STS  __lcd_x,R30
	SBI  0x1B,0
	LD   R26,Y
	RCALL __lcd_write_data
	CBI  0x1B,0
	RJMP _0x20C0002
; .FEND
_lcd_puts:
; .FSTART _lcd_puts
	ST   -Y,R27
	ST   -Y,R26
	ST   -Y,R17
_0x2000008:
	LDD  R26,Y+1
	LDD  R27,Y+1+1
	LD   R30,X+
	STD  Y+1,R26
	STD  Y+1+1,R27
	MOV  R17,R30
	CPI  R30,0
	BREQ _0x200000A
	MOV  R26,R17
	RCALL _lcd_putchar
	RJMP _0x2000008
_0x200000A:
	LDD  R17,Y+0
	ADIW R28,3
	RET
; .FEND
_lcd_init:
; .FSTART _lcd_init
	ST   -Y,R26
	IN   R30,0x1A
	ORI  R30,LOW(0xF0)
	OUT  0x1A,R30
	SBI  0x1A,2
	SBI  0x1A,0
	SBI  0x1A,1
	CBI  0x1B,2
	CBI  0x1B,0
	CBI  0x1B,1
	LD   R30,Y
	STS  __lcd_maxx,R30
	SUBI R30,-LOW(128)
	__PUTB1MN __base_y_G100,2
	LD   R30,Y
	SUBI R30,-LOW(192)
	__PUTB1MN __base_y_G100,3
	LDI  R26,LOW(20)
	LDI  R27,0
	CALL _delay_ms
	CALL SUBOPT_0x2
	CALL SUBOPT_0x2
	CALL SUBOPT_0x2
	LDI  R26,LOW(32)
	RCALL __lcd_write_nibble_G100
	__DELAY_USB 33
	LDI  R26,LOW(40)
	RCALL __lcd_write_data
	LDI  R26,LOW(4)
	RCALL __lcd_write_data
	LDI  R26,LOW(133)
	RCALL __lcd_write_data
	LDI  R26,LOW(6)
	RCALL __lcd_write_data
	RCALL _lcd_clear
_0x20C0002:
	ADIW R28,1
	RET
; .FEND

	.CSEG
_itoa:
; .FSTART _itoa
	ST   -Y,R27
	ST   -Y,R26
    ld   r26,y+
    ld   r27,y+
    ld   r30,y+
    ld   r31,y+
    adiw r30,0
    brpl __itoa0
    com  r30
    com  r31
    adiw r30,1
    ldi  r22,'-'
    st   x+,r22
__itoa0:
    clt
    ldi  r24,low(10000)
    ldi  r25,high(10000)
    rcall __itoa1
    ldi  r24,low(1000)
    ldi  r25,high(1000)
    rcall __itoa1
    ldi  r24,100
    clr  r25
    rcall __itoa1
    ldi  r24,10
    rcall __itoa1
    mov  r22,r30
    rcall __itoa5
    clr  r22
    st   x,r22
    ret

__itoa1:
    clr	 r22
__itoa2:
    cp   r30,r24
    cpc  r31,r25
    brlo __itoa3
    inc  r22
    sub  r30,r24
    sbc  r31,r25
    brne __itoa2
__itoa3:
    tst  r22
    brne __itoa4
    brts __itoa5
    ret
__itoa4:
    set
__itoa5:
    subi r22,-0x30
    st   x+,r22
    ret
; .FEND

	.DSEG

	.CSEG
	#ifndef __SLEEP_DEFINED__
	#define __SLEEP_DEFINED__
	.EQU __se_bit=0x80
	.EQU __sm_mask=0x70
	.EQU __sm_powerdown=0x20
	.EQU __sm_powersave=0x30
	.EQU __sm_standby=0x60
	.EQU __sm_ext_standby=0x70
	.EQU __sm_adc_noise_red=0x10
	.SET power_ctrl_reg=mcucr
	#endif

	.CSEG
_put_buff_G102:
; .FSTART _put_buff_G102
	ST   -Y,R27
	ST   -Y,R26
	ST   -Y,R17
	ST   -Y,R16
	LDD  R26,Y+2
	LDD  R27,Y+2+1
	ADIW R26,2
	CALL __GETW1P
	SBIW R30,0
	BREQ _0x2040010
	LDD  R26,Y+2
	LDD  R27,Y+2+1
	ADIW R26,4
	CALL __GETW1P
	MOVW R16,R30
	SBIW R30,0
	BREQ _0x2040012
	__CPWRN 16,17,2
	BRLO _0x2040013
	MOVW R30,R16
	SBIW R30,1
	MOVW R16,R30
	__PUTW1SNS 2,4
_0x2040012:
	LDD  R26,Y+2
	LDD  R27,Y+2+1
	ADIW R26,2
	LD   R30,X+
	LD   R31,X+
	ADIW R30,1
	ST   -X,R31
	ST   -X,R30
	SBIW R30,1
	LDD  R26,Y+4
	STD  Z+0,R26
_0x2040013:
	LDD  R26,Y+2
	LDD  R27,Y+2+1
	CALL __GETW1P
	TST  R31
	BRMI _0x2040014
	LD   R30,X+
	LD   R31,X+
	ADIW R30,1
	ST   -X,R31
	ST   -X,R30
_0x2040014:
	RJMP _0x2040015
_0x2040010:
	LDD  R26,Y+2
	LDD  R27,Y+2+1
	LDI  R30,LOW(65535)
	LDI  R31,HIGH(65535)
	ST   X+,R30
	ST   X,R31
_0x2040015:
	LDD  R17,Y+1
	LDD  R16,Y+0
	ADIW R28,5
	RET
; .FEND
__print_G102:
; .FSTART __print_G102
	ST   -Y,R27
	ST   -Y,R26
	SBIW R28,6
	CALL __SAVELOCR6
	LDI  R17,0
	LDD  R26,Y+12
	LDD  R27,Y+12+1
	LDI  R30,LOW(0)
	LDI  R31,HIGH(0)
	ST   X+,R30
	ST   X,R31
_0x2040016:
	LDD  R30,Y+18
	LDD  R31,Y+18+1
	ADIW R30,1
	STD  Y+18,R30
	STD  Y+18+1,R31
	SBIW R30,1
	LPM  R30,Z
	MOV  R18,R30
	CPI  R30,0
	BRNE PC+2
	RJMP _0x2040018
	MOV  R30,R17
	CPI  R30,0
	BRNE _0x204001C
	CPI  R18,37
	BRNE _0x204001D
	LDI  R17,LOW(1)
	RJMP _0x204001E
_0x204001D:
	CALL SUBOPT_0x3
_0x204001E:
	RJMP _0x204001B
_0x204001C:
	CPI  R30,LOW(0x1)
	BRNE _0x204001F
	CPI  R18,37
	BRNE _0x2040020
	CALL SUBOPT_0x3
	RJMP _0x20400CC
_0x2040020:
	LDI  R17,LOW(2)
	LDI  R20,LOW(0)
	LDI  R16,LOW(0)
	CPI  R18,45
	BRNE _0x2040021
	LDI  R16,LOW(1)
	RJMP _0x204001B
_0x2040021:
	CPI  R18,43
	BRNE _0x2040022
	LDI  R20,LOW(43)
	RJMP _0x204001B
_0x2040022:
	CPI  R18,32
	BRNE _0x2040023
	LDI  R20,LOW(32)
	RJMP _0x204001B
_0x2040023:
	RJMP _0x2040024
_0x204001F:
	CPI  R30,LOW(0x2)
	BRNE _0x2040025
_0x2040024:
	LDI  R21,LOW(0)
	LDI  R17,LOW(3)
	CPI  R18,48
	BRNE _0x2040026
	ORI  R16,LOW(128)
	RJMP _0x204001B
_0x2040026:
	RJMP _0x2040027
_0x2040025:
	CPI  R30,LOW(0x3)
	BREQ PC+2
	RJMP _0x204001B
_0x2040027:
	CPI  R18,48
	BRLO _0x204002A
	CPI  R18,58
	BRLO _0x204002B
_0x204002A:
	RJMP _0x2040029
_0x204002B:
	LDI  R26,LOW(10)
	MUL  R21,R26
	MOV  R21,R0
	MOV  R30,R18
	SUBI R30,LOW(48)
	ADD  R21,R30
	RJMP _0x204001B
_0x2040029:
	MOV  R30,R18
	CPI  R30,LOW(0x63)
	BRNE _0x204002F
	CALL SUBOPT_0x4
	LDD  R30,Y+16
	LDD  R31,Y+16+1
	LDD  R26,Z+4
	ST   -Y,R26
	CALL SUBOPT_0x5
	RJMP _0x2040030
_0x204002F:
	CPI  R30,LOW(0x73)
	BRNE _0x2040032
	CALL SUBOPT_0x4
	CALL SUBOPT_0x6
	CALL _strlen
	MOV  R17,R30
	RJMP _0x2040033
_0x2040032:
	CPI  R30,LOW(0x70)
	BRNE _0x2040035
	CALL SUBOPT_0x4
	CALL SUBOPT_0x6
	CALL _strlenf
	MOV  R17,R30
	ORI  R16,LOW(8)
_0x2040033:
	ORI  R16,LOW(2)
	ANDI R16,LOW(127)
	LDI  R19,LOW(0)
	RJMP _0x2040036
_0x2040035:
	CPI  R30,LOW(0x64)
	BREQ _0x2040039
	CPI  R30,LOW(0x69)
	BRNE _0x204003A
_0x2040039:
	ORI  R16,LOW(4)
	RJMP _0x204003B
_0x204003A:
	CPI  R30,LOW(0x75)
	BRNE _0x204003C
_0x204003B:
	LDI  R30,LOW(_tbl10_G102*2)
	LDI  R31,HIGH(_tbl10_G102*2)
	STD  Y+6,R30
	STD  Y+6+1,R31
	LDI  R17,LOW(5)
	RJMP _0x204003D
_0x204003C:
	CPI  R30,LOW(0x58)
	BRNE _0x204003F
	ORI  R16,LOW(8)
	RJMP _0x2040040
_0x204003F:
	CPI  R30,LOW(0x78)
	BREQ PC+2
	RJMP _0x2040071
_0x2040040:
	LDI  R30,LOW(_tbl16_G102*2)
	LDI  R31,HIGH(_tbl16_G102*2)
	STD  Y+6,R30
	STD  Y+6+1,R31
	LDI  R17,LOW(4)
_0x204003D:
	SBRS R16,2
	RJMP _0x2040042
	CALL SUBOPT_0x4
	CALL SUBOPT_0x7
	LDD  R26,Y+11
	TST  R26
	BRPL _0x2040043
	LDD  R30,Y+10
	LDD  R31,Y+10+1
	CALL __ANEGW1
	STD  Y+10,R30
	STD  Y+10+1,R31
	LDI  R20,LOW(45)
_0x2040043:
	CPI  R20,0
	BREQ _0x2040044
	SUBI R17,-LOW(1)
	RJMP _0x2040045
_0x2040044:
	ANDI R16,LOW(251)
_0x2040045:
	RJMP _0x2040046
_0x2040042:
	CALL SUBOPT_0x4
	CALL SUBOPT_0x7
_0x2040046:
_0x2040036:
	SBRC R16,0
	RJMP _0x2040047
_0x2040048:
	CP   R17,R21
	BRSH _0x204004A
	SBRS R16,7
	RJMP _0x204004B
	SBRS R16,2
	RJMP _0x204004C
	ANDI R16,LOW(251)
	MOV  R18,R20
	SUBI R17,LOW(1)
	RJMP _0x204004D
_0x204004C:
	LDI  R18,LOW(48)
_0x204004D:
	RJMP _0x204004E
_0x204004B:
	LDI  R18,LOW(32)
_0x204004E:
	CALL SUBOPT_0x3
	SUBI R21,LOW(1)
	RJMP _0x2040048
_0x204004A:
_0x2040047:
	MOV  R19,R17
	SBRS R16,1
	RJMP _0x204004F
_0x2040050:
	CPI  R19,0
	BREQ _0x2040052
	SBRS R16,3
	RJMP _0x2040053
	LDD  R30,Y+6
	LDD  R31,Y+6+1
	LPM  R18,Z+
	STD  Y+6,R30
	STD  Y+6+1,R31
	RJMP _0x2040054
_0x2040053:
	LDD  R26,Y+6
	LDD  R27,Y+6+1
	LD   R18,X+
	STD  Y+6,R26
	STD  Y+6+1,R27
_0x2040054:
	CALL SUBOPT_0x3
	CPI  R21,0
	BREQ _0x2040055
	SUBI R21,LOW(1)
_0x2040055:
	SUBI R19,LOW(1)
	RJMP _0x2040050
_0x2040052:
	RJMP _0x2040056
_0x204004F:
_0x2040058:
	LDI  R18,LOW(48)
	LDD  R30,Y+6
	LDD  R31,Y+6+1
	CALL __GETW1PF
	STD  Y+8,R30
	STD  Y+8+1,R31
	LDD  R30,Y+6
	LDD  R31,Y+6+1
	ADIW R30,2
	STD  Y+6,R30
	STD  Y+6+1,R31
_0x204005A:
	LDD  R30,Y+8
	LDD  R31,Y+8+1
	LDD  R26,Y+10
	LDD  R27,Y+10+1
	CP   R26,R30
	CPC  R27,R31
	BRLO _0x204005C
	SUBI R18,-LOW(1)
	LDD  R26,Y+8
	LDD  R27,Y+8+1
	LDD  R30,Y+10
	LDD  R31,Y+10+1
	SUB  R30,R26
	SBC  R31,R27
	STD  Y+10,R30
	STD  Y+10+1,R31
	RJMP _0x204005A
_0x204005C:
	CPI  R18,58
	BRLO _0x204005D
	SBRS R16,3
	RJMP _0x204005E
	SUBI R18,-LOW(7)
	RJMP _0x204005F
_0x204005E:
	SUBI R18,-LOW(39)
_0x204005F:
_0x204005D:
	SBRC R16,4
	RJMP _0x2040061
	CPI  R18,49
	BRSH _0x2040063
	LDD  R26,Y+8
	LDD  R27,Y+8+1
	SBIW R26,1
	BRNE _0x2040062
_0x2040063:
	RJMP _0x20400CD
_0x2040062:
	CP   R21,R19
	BRLO _0x2040067
	SBRS R16,0
	RJMP _0x2040068
_0x2040067:
	RJMP _0x2040066
_0x2040068:
	LDI  R18,LOW(32)
	SBRS R16,7
	RJMP _0x2040069
	LDI  R18,LOW(48)
_0x20400CD:
	ORI  R16,LOW(16)
	SBRS R16,2
	RJMP _0x204006A
	ANDI R16,LOW(251)
	ST   -Y,R20
	CALL SUBOPT_0x5
	CPI  R21,0
	BREQ _0x204006B
	SUBI R21,LOW(1)
_0x204006B:
_0x204006A:
_0x2040069:
_0x2040061:
	CALL SUBOPT_0x3
	CPI  R21,0
	BREQ _0x204006C
	SUBI R21,LOW(1)
_0x204006C:
_0x2040066:
	SUBI R19,LOW(1)
	LDD  R26,Y+8
	LDD  R27,Y+8+1
	SBIW R26,2
	BRLO _0x2040059
	RJMP _0x2040058
_0x2040059:
_0x2040056:
	SBRS R16,0
	RJMP _0x204006D
_0x204006E:
	CPI  R21,0
	BREQ _0x2040070
	SUBI R21,LOW(1)
	LDI  R30,LOW(32)
	ST   -Y,R30
	CALL SUBOPT_0x5
	RJMP _0x204006E
_0x2040070:
_0x204006D:
_0x2040071:
_0x2040030:
_0x20400CC:
	LDI  R17,LOW(0)
_0x204001B:
	RJMP _0x2040016
_0x2040018:
	LDD  R26,Y+12
	LDD  R27,Y+12+1
	CALL __GETW1P
	CALL __LOADLOCR6
	ADIW R28,20
	RET
; .FEND
_sprintf:
; .FSTART _sprintf
	PUSH R15
	MOV  R15,R24
	SBIW R28,6
	CALL __SAVELOCR4
	CALL SUBOPT_0x8
	SBIW R30,0
	BRNE _0x2040072
	LDI  R30,LOW(65535)
	LDI  R31,HIGH(65535)
	RJMP _0x20C0001
_0x2040072:
	MOVW R26,R28
	ADIW R26,6
	CALL __ADDW2R15
	MOVW R16,R26
	CALL SUBOPT_0x8
	STD  Y+6,R30
	STD  Y+6+1,R31
	LDI  R30,LOW(0)
	STD  Y+8,R30
	STD  Y+8+1,R30
	MOVW R26,R28
	ADIW R26,10
	CALL __ADDW2R15
	CALL __GETW1P
	ST   -Y,R31
	ST   -Y,R30
	ST   -Y,R17
	ST   -Y,R16
	LDI  R30,LOW(_put_buff_G102)
	LDI  R31,HIGH(_put_buff_G102)
	ST   -Y,R31
	ST   -Y,R30
	MOVW R26,R28
	ADIW R26,10
	RCALL __print_G102
	MOVW R18,R30
	LDD  R26,Y+6
	LDD  R27,Y+6+1
	LDI  R30,LOW(0)
	ST   X,R30
	MOVW R30,R18
_0x20C0001:
	CALL __LOADLOCR4
	ADIW R28,10
	POP  R15
	RET
; .FEND

	.CSEG

	.CSEG

	.CSEG
_strlen:
; .FSTART _strlen
	ST   -Y,R27
	ST   -Y,R26
    ld   r26,y+
    ld   r27,y+
    clr  r30
    clr  r31
strlen0:
    ld   r22,x+
    tst  r22
    breq strlen1
    adiw r30,1
    rjmp strlen0
strlen1:
    ret
; .FEND
_strlenf:
; .FSTART _strlenf
	ST   -Y,R27
	ST   -Y,R26
    clr  r26
    clr  r27
    ld   r30,y+
    ld   r31,y+
strlenf0:
	lpm  r0,z+
    tst  r0
    breq strlenf1
    adiw r26,1
    rjmp strlenf0
strlenf1:
    movw r30,r26
    ret
; .FEND

	.DSEG
_buffer:
	.BYTE 0x10
_keypadPatterns:
	.BYTE 0xC
_new_key:
	.BYTE 0x2
_pressed_key:
	.BYTE 0x2
__base_y_G100:
	.BYTE 0x4
__lcd_x:
	.BYTE 0x1
__lcd_y:
	.BYTE 0x1
__lcd_maxx:
	.BYTE 0x1
__seed_G101:
	.BYTE 0x4

	.CSEG
;OPTIMIZER ADDED SUBROUTINE, CALLED 2 TIMES, CODE SIZE REDUCTION:70 WORDS
SUBOPT_0x0:
	LDI  R30,LOW(0)
	ST   -Y,R30
	LDI  R26,LOW(1)
	CALL _lcd_gotoxy
	LDI  R30,LOW(_buffer)
	LDI  R31,HIGH(_buffer)
	ST   -Y,R31
	ST   -Y,R30
	__POINTW1FN _0x0,0
	ST   -Y,R31
	ST   -Y,R30
	MOVW R26,R10
	LDI  R30,LOW(10)
	LDI  R31,HIGH(10)
	CALL __DIVW21
	CALL __CWD1
	CALL __PUTPARD1
	MOVW R26,R10
	LDI  R30,LOW(10)
	LDI  R31,HIGH(10)
	CALL __MODW21
	CALL __CWD1
	CALL __PUTPARD1
	MOVW R26,R8
	LDI  R30,LOW(10)
	LDI  R31,HIGH(10)
	CALL __DIVW21
	CALL __CWD1
	CALL __PUTPARD1
	MOVW R26,R8
	LDI  R30,LOW(10)
	LDI  R31,HIGH(10)
	CALL __MODW21
	CALL __CWD1
	CALL __PUTPARD1
	MOVW R26,R6
	LDI  R30,LOW(10)
	LDI  R31,HIGH(10)
	CALL __DIVW21
	CALL __CWD1
	CALL __PUTPARD1
	MOVW R26,R6
	LDI  R30,LOW(10)
	LDI  R31,HIGH(10)
	CALL __MODW21
	CALL __CWD1
	CALL __PUTPARD1
	LDI  R24,24
	CALL _sprintf
	ADIW R28,28
	LDI  R26,LOW(_buffer)
	LDI  R27,HIGH(_buffer)
	JMP  _lcd_puts

;OPTIMIZER ADDED SUBROUTINE, CALLED 2 TIMES, CODE SIZE REDUCTION:1 WORDS
SUBOPT_0x1:
	CALL __lcd_write_data
	LDI  R26,LOW(3)
	LDI  R27,0
	JMP  _delay_ms

;OPTIMIZER ADDED SUBROUTINE, CALLED 3 TIMES, CODE SIZE REDUCTION:5 WORDS
SUBOPT_0x2:
	LDI  R26,LOW(48)
	CALL __lcd_write_nibble_G100
	__DELAY_USB 33
	RET

;OPTIMIZER ADDED SUBROUTINE, CALLED 5 TIMES, CODE SIZE REDUCTION:13 WORDS
SUBOPT_0x3:
	ST   -Y,R18
	LDD  R26,Y+13
	LDD  R27,Y+13+1
	LDD  R30,Y+15
	LDD  R31,Y+15+1
	ICALL
	RET

;OPTIMIZER ADDED SUBROUTINE, CALLED 5 TIMES, CODE SIZE REDUCTION:9 WORDS
SUBOPT_0x4:
	LDD  R30,Y+16
	LDD  R31,Y+16+1
	SBIW R30,4
	STD  Y+16,R30
	STD  Y+16+1,R31
	RET

;OPTIMIZER ADDED SUBROUTINE, CALLED 3 TIMES, CODE SIZE REDUCTION:3 WORDS
SUBOPT_0x5:
	LDD  R26,Y+13
	LDD  R27,Y+13+1
	LDD  R30,Y+15
	LDD  R31,Y+15+1
	ICALL
	RET

;OPTIMIZER ADDED SUBROUTINE, CALLED 2 TIMES, CODE SIZE REDUCTION:4 WORDS
SUBOPT_0x6:
	LDD  R26,Y+16
	LDD  R27,Y+16+1
	ADIW R26,4
	CALL __GETW1P
	STD  Y+6,R30
	STD  Y+6+1,R31
	LDD  R26,Y+6
	LDD  R27,Y+6+1
	RET

;OPTIMIZER ADDED SUBROUTINE, CALLED 2 TIMES, CODE SIZE REDUCTION:2 WORDS
SUBOPT_0x7:
	LDD  R26,Y+16
	LDD  R27,Y+16+1
	ADIW R26,4
	CALL __GETW1P
	STD  Y+10,R30
	STD  Y+10+1,R31
	RET

;OPTIMIZER ADDED SUBROUTINE, CALLED 2 TIMES, CODE SIZE REDUCTION:1 WORDS
SUBOPT_0x8:
	MOVW R26,R28
	ADIW R26,12
	CALL __ADDW2R15
	CALL __GETW1P
	RET


	.CSEG
_delay_ms:
	adiw r26,0
	breq __delay_ms1
__delay_ms0:
	__DELAY_USW 0xFA
	wdr
	sbiw r26,1
	brne __delay_ms0
__delay_ms1:
	ret

__ADDW2R15:
	CLR  R0
	ADD  R26,R15
	ADC  R27,R0
	RET

__ANEGW1:
	NEG  R31
	NEG  R30
	SBCI R31,0
	RET

__CWD1:
	MOV  R22,R31
	ADD  R22,R22
	SBC  R22,R22
	MOV  R23,R22
	RET

__DIVW21U:
	CLR  R0
	CLR  R1
	LDI  R25,16
__DIVW21U1:
	LSL  R26
	ROL  R27
	ROL  R0
	ROL  R1
	SUB  R0,R30
	SBC  R1,R31
	BRCC __DIVW21U2
	ADD  R0,R30
	ADC  R1,R31
	RJMP __DIVW21U3
__DIVW21U2:
	SBR  R26,1
__DIVW21U3:
	DEC  R25
	BRNE __DIVW21U1
	MOVW R30,R26
	MOVW R26,R0
	RET

__DIVW21:
	RCALL __CHKSIGNW
	RCALL __DIVW21U
	BRTC __DIVW211
	RCALL __ANEGW1
__DIVW211:
	RET

__MODW21:
	CLT
	SBRS R27,7
	RJMP __MODW211
	COM  R26
	COM  R27
	ADIW R26,1
	SET
__MODW211:
	SBRC R31,7
	RCALL __ANEGW1
	RCALL __DIVW21U
	MOVW R30,R26
	BRTC __MODW212
	RCALL __ANEGW1
__MODW212:
	RET

__CHKSIGNW:
	CLT
	SBRS R31,7
	RJMP __CHKSW1
	RCALL __ANEGW1
	SET
__CHKSW1:
	SBRS R27,7
	RJMP __CHKSW2
	COM  R26
	COM  R27
	ADIW R26,1
	BLD  R0,0
	INC  R0
	BST  R0,0
__CHKSW2:
	RET

__GETW1P:
	LD   R30,X+
	LD   R31,X
	SBIW R26,1
	RET

__GETW1PF:
	LPM  R0,Z+
	LPM  R31,Z
	MOV  R30,R0
	RET

__PUTPARD1:
	ST   -Y,R23
	ST   -Y,R22
	ST   -Y,R31
	ST   -Y,R30
	RET

__SAVELOCR6:
	ST   -Y,R21
__SAVELOCR5:
	ST   -Y,R20
__SAVELOCR4:
	ST   -Y,R19
__SAVELOCR3:
	ST   -Y,R18
__SAVELOCR2:
	ST   -Y,R17
	ST   -Y,R16
	RET

__LOADLOCR6:
	LDD  R21,Y+5
__LOADLOCR5:
	LDD  R20,Y+4
__LOADLOCR4:
	LDD  R19,Y+3
__LOADLOCR3:
	LDD  R18,Y+2
__LOADLOCR2:
	LDD  R17,Y+1
	LD   R16,Y
	RET

;END OF CODE MARKER
__END_OF_CODE:
